; Function Attrs: nounwind uwtable
define ptr @l_Array_forIn_x27Unsafe_loop___at_Lean_Meta_Grind_tryToProveFalse___spec__1___boxed(ptr noundef readonly captures(none) %0) local_unnamed_addr #0 {
  %2 = load ptr, ptr %0, align 8, !tbaa !10
  %3 = getelementptr inbounds nuw i8, ptr %0, i64 8
  %4 = load ptr, ptr %3, align 8, !tbaa !10
  %5 = getelementptr inbounds nuw i8, ptr %0, i64 16
  %6 = load ptr, ptr %5, align 8, !tbaa !10
  %7 = getelementptr inbounds nuw i8, ptr %0, i64 24
  %8 = load ptr, ptr %7, align 8, !tbaa !10
  %9 = getelementptr inbounds nuw i8, ptr %0, i64 32
  %10 = load ptr, ptr %9, align 8, !tbaa !10
  %11 = getelementptr inbounds nuw i8, ptr %0, i64 40
  %12 = load ptr, ptr %11, align 8, !tbaa !10
  %13 = getelementptr inbounds nuw i8, ptr %0, i64 48
  %14 = load ptr, ptr %13, align 8, !tbaa !10
  %15 = getelementptr inbounds nuw i8, ptr %0, i64 56
  %16 = load ptr, ptr %15, align 8, !tbaa !10
  %17 = getelementptr inbounds nuw i8, ptr %0, i64 64
  %18 = load ptr, ptr %17, align 8, !tbaa !10
  %19 = getelementptr inbounds nuw i8, ptr %0, i64 72
  %20 = load ptr, ptr %19, align 8, !tbaa !10
  %21 = getelementptr inbounds nuw i8, ptr %0, i64 80
  %22 = load ptr, ptr %21, align 8, !tbaa !10
  %23 = getelementptr inbounds nuw i8, ptr %0, i64 88
  %24 = load ptr, ptr %23, align 8, !tbaa !10
  %25 = getelementptr inbounds nuw i8, ptr %0, i64 96
  %26 = load ptr, ptr %25, align 8, !tbaa !10
  %27 = getelementptr inbounds nuw i8, ptr %0, i64 104
  %28 = load ptr, ptr %27, align 8, !tbaa !10
  %29 = getelementptr inbounds nuw i8, ptr %0, i64 112
  %30 = load ptr, ptr %29, align 8, !tbaa !10
  %31 = getelementptr inbounds nuw i8, ptr %0, i64 120
  %32 = load ptr, ptr %31, align 8, !tbaa !10
  %33 = getelementptr inbounds nuw i8, ptr %0, i64 128
  %34 = load ptr, ptr %33, align 8, !tbaa !10
  %35 = getelementptr inbounds nuw i8, ptr %0, i64 136
  %36 = load ptr, ptr %35, align 8, !tbaa !10
  %37 = getelementptr i8, ptr %14, i64 8
  %.val59 = load i64, ptr %37, align 8, !tbaa !12
  %38 = ptrtoint ptr %14 to i64
  %39 = and i64 %38, 1
  %.not = icmp eq i64 %39, 0
  br i1 %.not, label %40, label %lean_dec.exit48

40:                                               ; preds = %1
  %41 = load i32, ptr %14, align 4, !tbaa !4
  %42 = icmp sgt i32 %41, 1
  br i1 %42, label %43, label %45, !prof !9

43:                                               ; preds = %40
  %44 = add nsw i32 %41, -1
  store i32 %44, ptr %14, align 4, !tbaa !4
  br label %lean_dec.exit48

45:                                               ; preds = %40
  %.not.i = icmp eq i32 %41, 0
  br i1 %.not.i, label %lean_dec.exit48, label %46

46:                                               ; preds = %45
  tail call void @lean_dec_ref_cold(ptr noundef nonnull %14) #4
  br label %lean_dec.exit48

lean_dec.exit48:                                  ; preds = %46, %45, %43, %1
  %47 = getelementptr i8, ptr %16, i64 8
  %.val = load i64, ptr %47, align 8, !tbaa !12
  %48 = ptrtoint ptr %16 to i64
  %49 = and i64 %48, 1
  %.not60 = icmp eq i64 %49, 0
  br i1 %.not60, label %50, label %lean_dec.exit47

50:                                               ; preds = %lean_dec.exit48
  %51 = load i32, ptr %16, align 4, !tbaa !4
  %52 = icmp sgt i32 %51, 1
  br i1 %52, label %53, label %55, !prof !9

53:                                               ; preds = %50
  %54 = add nsw i32 %51, -1
  store i32 %54, ptr %16, align 4, !tbaa !4
  br label %lean_dec.exit47

55:                                               ; preds = %50
  %.not.i49 = icmp eq i32 %51, 0
  br i1 %.not.i49, label %lean_dec.exit47, label %56

56:                                               ; preds = %55
  tail call void @lean_dec_ref_cold(ptr noundef nonnull %16) #4
  br label %lean_dec.exit47

lean_dec.exit47:                                  ; preds = %56, %55, %53, %lean_dec.exit48
  %57 = tail call ptr @l_Array_forIn_x27Unsafe_loop___at_Lean_Meta_Grind_tryToProveFalse___spec__1(ptr noundef %2, ptr poison, ptr poison, ptr poison, ptr noundef %10, ptr noundef %12, i64 noundef %.val59, i64 noundef %.val, ptr noundef %18, ptr noundef %20, ptr noundef %22, ptr noundef %24, ptr noundef %26, ptr noundef %28, ptr noundef %30, ptr noundef %32, ptr noundef %34, ptr noundef %36)
  %58 = ptrtoint ptr %12 to i64
  %59 = and i64 %58, 1
  %.not61 = icmp eq i64 %59, 0
  br i1 %.not61, label %60, label %lean_dec.exit46

60:                                               ; preds = %lean_dec.exit47
  %61 = load i32, ptr %12, align 4, !tbaa !4
  %62 = icmp sgt i32 %61, 1
  br i1 %62, label %63, label %65, !prof !9

63:                                               ; preds = %60
  %64 = add nsw i32 %61, -1
  store i32 %64, ptr %12, align 4, !tbaa !4
  br label %lean_dec.exit46

65:                                               ; preds = %60
  %.not.i51 = icmp eq i32 %61, 0
  br i1 %.not.i51, label %lean_dec.exit46, label %66

66:                                               ; preds = %65
  tail call void @lean_dec_ref_cold(ptr noundef nonnull %12) #4
  br label %lean_dec.exit46

lean_dec.exit46:                                  ; preds = %66, %65, %63, %lean_dec.exit47
  %67 = ptrtoint ptr %8 to i64
  %68 = and i64 %67, 1
  %.not62 = icmp eq i64 %68, 0
  br i1 %.not62, label %69, label %lean_dec.exit45

69:                                               ; preds = %lean_dec.exit46
  %70 = load i32, ptr %8, align 4, !tbaa !4
  %71 = icmp sgt i32 %70, 1
  br i1 %71, label %72, label %74, !prof !9

72:                                               ; preds = %69
  %73 = add nsw i32 %70, -1
  store i32 %73, ptr %8, align 4, !tbaa !4
  br label %lean_dec.exit45

74:                                               ; preds = %69
  %.not.i53 = icmp eq i32 %70, 0
  br i1 %.not.i53, label %lean_dec.exit45, label %75

75:                                               ; preds = %74
  tail call void @lean_dec_ref_cold(ptr noundef nonnull %8) #4
  br label %lean_dec.exit45

lean_dec.exit45:                                  ; preds = %75, %74, %72, %lean_dec.exit46
  %76 = ptrtoint ptr %6 to i64
  %77 = and i64 %76, 1
  %.not63 = icmp eq i64 %77, 0
  br i1 %.not63, label %78, label %lean_dec.exit44

78:                                               ; preds = %lean_dec.exit45
  %79 = load i32, ptr %6, align 4, !tbaa !4
  %80 = icmp sgt i32 %79, 1
  br i1 %80, label %81, label %83, !prof !9

81:                                               ; preds = %78
  %82 = add nsw i32 %79, -1
  store i32 %82, ptr %6, align 4, !tbaa !4
  br label %lean_dec.exit44

83:                                               ; preds = %78
  %.not.i55 = icmp eq i32 %79, 0
  br i1 %.not.i55, label %lean_dec.exit44, label %84

84:                                               ; preds = %83
  tail call void @lean_dec_ref_cold(ptr noundef nonnull %6) #4
  br label %lean_dec.exit44

lean_dec.exit44:                                  ; preds = %84, %83, %81, %lean_dec.exit45
  %85 = ptrtoint ptr %4 to i64
  %86 = and i64 %85, 1
  %.not64 = icmp eq i64 %86, 0
  br i1 %.not64, label %87, label %lean_dec.exit

87:                                               ; preds = %lean_dec.exit44
  %88 = load i32, ptr %4, align 4, !tbaa !4
  %89 = icmp sgt i32 %88, 1
  br i1 %89, label %90, label %92, !prof !9

90:                                               ; preds = %87
  %91 = add nsw i32 %88, -1
  store i32 %91, ptr %4, align 4, !tbaa !4
  br label %lean_dec.exit

92:                                               ; preds = %87
  %.not.i57 = icmp eq i32 %88, 0
  br i1 %.not.i57, label %lean_dec.exit, label %93

93:                                               ; preds = %92
  tail call void @lean_dec_ref_cold(ptr noundef nonnull %4) #4
  br label %lean_dec.exit

lean_dec.exit:                                    ; preds = %93, %92, %90, %lean_dec.exit44
  ret ptr %57
}